; Function Attrs: nounwind uwtable
define internal range(i32 0, 2) i32 @canonicalize_ceiling_entry(ptr noundef captures(none) %0, ptr noundef captures(none) %1) #0 {
  %3 = load ptr, ptr %0, align 8, !tbaa !34
  %4 = load i8, ptr %3, align 1, !tbaa !4
  switch i8 %4, label %12 [
    i8 0, label %5
    i8 47, label %6
  ]

5:                                                ; preds = %2
  store i32 1, ptr %1, align 4, !tbaa !7
  br label %12

6:                                                ; preds = %2
  %7 = load i32, ptr %1, align 4, !tbaa !7
  %.not13 = icmp eq i32 %7, 0
  br i1 %.not13, label %8, label %12

8:                                                ; preds = %6
  %9 = tail call ptr @real_pathdup(ptr noundef nonnull %3, i32 noundef 0) #25
  %.not14 = icmp eq ptr %9, null
  br i1 %.not14, label %12, label %10

10:                                               ; preds = %8
  %11 = load ptr, ptr %0, align 8, !tbaa !34
  tail call void @free(ptr noundef %11) #25
  store ptr %9, ptr %0, align 8, !tbaa !34
  br label %12

12:                                               ; preds = %2, %10, %8, %6, %5
  %.0 = phi i32 [ 0, %5 ], [ 1, %6 ], [ 1, %10 ], [ 0, %8 ], [ 0, %2 ]
  ret i32 %.0
}